target datalayout = "e-m:e-p270:32:32-p271:32:32-p272:64:64-i64:64-i128:128-f80:128-n8:16:32:64-S128"
target triple = "x86_64-pc-linux-gnu"

%struct.Vec_Int_t_ = type { i32, i32, ptr }
%struct.Vec_Ptr_t_ = type { i32, i32, ptr }
%struct.Abc_Ntk_t_ = type { i32, i32, ptr, ptr, ptr, ptr, ptr, ptr, ptr, ptr, ptr, ptr, ptr, [11 x i32], i32, i32, i32, i32, ptr, i32, ptr, ptr, i32, i32, i32, double, i32, %struct.Vec_Int_t_, ptr, ptr, ptr, ptr, ptr, float, i32, ptr, ptr, ptr, ptr, ptr, ptr, ptr, ptr, ptr, ptr, ptr, ptr, ptr, ptr, ptr, ptr, ptr, ptr, ptr, ptr, ptr }
%struct.Aig_Man_t_ = type { ptr, ptr, ptr, ptr, ptr, ptr, ptr, %struct.Aig_Obj_t_, i32, i32, i32, i32, i32, i32, [7 x i32], i32, ptr, i32, ptr, i32, ptr, i32, i32, i32, ptr, i32, i32, i32, i32, i32, ptr, ptr, i32, ptr, ptr, i32, ptr, ptr, i32, i32, i32, ptr, ptr, ptr, ptr, ptr, ptr, ptr, ptr, ptr, ptr, ptr, ptr, ptr, ptr, i32, ptr, ptr, ptr, ptr, i32, i64, i64, i64, ptr, ptr }
%struct.Aig_Obj_t_ = type { %union.anon, ptr, ptr, i64, i32, i32, %union.anon.0 }
%union.anon = type { ptr }
%union.anon.0 = type { ptr }

@.str.91 = private unnamed_addr constant [35 x i8] c"Removing %d choices from the AIG.\0A\00", align 1
@.str.93 = private unnamed_addr constant [62 x i8] c"Abc_NtkDarSeqSim(): Counter-example verification has FAILED.\0A\00", align 1

; Function Attrs: nounwind uwtable
define internal ptr @Vec_PtrEntry(ptr noundef %0, i32 noundef %1) #0 {
  %3 = alloca ptr, align 8
  %4 = alloca i32, align 4
  store ptr %0, ptr %3, align 8
  store i32 %1, ptr %4, align 4
  %5 = load ptr, ptr %3, align 8
  %6 = getelementptr inbounds %struct.Vec_Ptr_t_, ptr %5, i32 0, i32 2
  %7 = load ptr, ptr %6, align 8
  %8 = load i32, ptr %4, align 4
  %9 = sext i32 %8 to i64
  %10 = getelementptr inbounds ptr, ptr %7, i64 %9
  %11 = load ptr, ptr %10, align 8
  ret ptr %11
}

; Function Attrs: nounwind uwtable
define internal i32 @Vec_PtrSize(ptr noundef %0) #0 {
  %2 = alloca ptr, align 8
  store ptr %0, ptr %2, align 8
  %3 = load ptr, ptr %2, align 8
  %4 = getelementptr inbounds %struct.Vec_Ptr_t_, ptr %3, i32 0, i32 1
  %5 = load i32, ptr %4, align 4
  ret i32 %5
}

; Function Attrs: nounwind uwtable
define internal void @Vec_PtrFree(ptr noundef %0) #0 {
  %2 = alloca ptr, align 8
  store ptr %0, ptr %2, align 8
  %3 = load ptr, ptr %2, align 8
  %4 = getelementptr inbounds %struct.Vec_Ptr_t_, ptr %3, i32 0, i32 2
  %5 = load ptr, ptr %4, align 8
  %6 = icmp ne ptr %5, null
  br i1 %6, label %7, label %13

7:                                                ; preds = %1
  %8 = load ptr, ptr %2, align 8
  %9 = getelementptr inbounds %struct.Vec_Ptr_t_, ptr %8, i32 0, i32 2
  %10 = load ptr, ptr %9, align 8
  call void @free(ptr noundef %10) #10
  %11 = load ptr, ptr %2, align 8
  %12 = getelementptr inbounds %struct.Vec_Ptr_t_, ptr %11, i32 0, i32 2
  store ptr null, ptr %12, align 8
  br label %14

13:                                               ; preds = %1
  br label %14

14:                                               ; preds = %13, %7
  %15 = load ptr, ptr %2, align 8
  %16 = icmp ne ptr %15, null
  br i1 %16, label %17, label %19

17:                                               ; preds = %14
  %18 = load ptr, ptr %2, align 8
  call void @free(ptr noundef %18) #10
  store ptr null, ptr %2, align 8
  br label %20

19:                                               ; preds = %14
  br label %20

20:                                               ; preds = %19, %17
  ret void
}

; Function Attrs: nounwind uwtable
define internal void @Vec_PtrFreeData(ptr noundef %0) #0 {
  %2 = alloca ptr, align 8
  %3 = alloca ptr, align 8
  %4 = alloca i32, align 4
  store ptr %0, ptr %2, align 8
  %5 = load ptr, ptr %2, align 8
  %6 = icmp eq ptr %5, null
  br i1 %6, label %7, label %8

7:                                                ; preds = %1
  br label %39

8:                                                ; preds = %1
  store i32 0, ptr %4, align 4
  br label %9

9:                                                ; preds = %36, %8
  %10 = load i32, ptr %4, align 4
  %11 = load ptr, ptr %2, align 8
  %12 = call i32 @Vec_PtrSize(ptr noundef %11)
  %13 = icmp slt i32 %10, %12
  br i1 %13, label %14, label %18

14:                                               ; preds = %9
  %15 = load ptr, ptr %2, align 8
  %16 = load i32, ptr %4, align 4
  %17 = call ptr @Vec_PtrEntry(ptr noundef %15, i32 noundef %16)
  store ptr %17, ptr %3, align 8
  br label %18

18:                                               ; preds = %14, %9
  %19 = phi i1 [ false, %9 ], [ true, %14 ]
  br i1 %19, label %20, label %39

20:                                               ; preds = %18
  %21 = load ptr, ptr %3, align 8
  %22 = inttoptr i64 1 to ptr
  %23 = icmp ne ptr %21, %22
  br i1 %23, label %24, label %35

24:                                               ; preds = %20
  %25 = load ptr, ptr %3, align 8
  %26 = inttoptr i64 2 to ptr
  %27 = icmp ne ptr %25, %26
  br i1 %27, label %28, label %35

28:                                               ; preds = %24
  %29 = load ptr, ptr %3, align 8
  %30 = icmp ne ptr %29, null
  br i1 %30, label %31, label %33

31:                                               ; preds = %28
  %32 = load ptr, ptr %3, align 8
  call void @free(ptr noundef %32) #10
  store ptr null, ptr %3, align 8
  br label %34

33:                                               ; preds = %28
  br label %34

34:                                               ; preds = %33, %31
  br label %35

35:                                               ; preds = %34, %24, %20
  br label %36

36:                                               ; preds = %35
  %37 = load i32, ptr %4, align 4
  %38 = add nsw i32 %37, 1
  store i32 %38, ptr %4, align 4
  br label %9, !llvm.loop !96

39:                                               ; preds = %18, %7
  ret void
}

; Function Attrs: nounwind uwtable
define internal void @Vec_PtrFreeFree(ptr noundef %0) #0 {
  %2 = alloca ptr, align 8
  store ptr %0, ptr %2, align 8
  %3 = load ptr, ptr %2, align 8
  %4 = icmp eq ptr %3, null
  br i1 %4, label %5, label %6

5:                                                ; preds = %1
  br label %9

6:                                                ; preds = %1
  %7 = load ptr, ptr %2, align 8
  call void @Vec_PtrFreeData(ptr noundef %7)
  %8 = load ptr, ptr %2, align 8
  call void @Vec_PtrFree(ptr noundef %8)
  br label %9

9:                                                ; preds = %6, %5
  ret void
}

; Function Attrs: nounwind uwtable
define i32 @Abc_NtkDarSeqSim3(ptr noundef %0, ptr noundef %1) #0 {
  %3 = alloca ptr, align 8
  %4 = alloca ptr, align 8
  %5 = alloca ptr, align 8
  %6 = alloca i32, align 4
  %7 = alloca i32, align 4
  store ptr %0, ptr %3, align 8
  store ptr %1, ptr %4, align 8
  store i32 -1, ptr %7, align 4
  %8 = load ptr, ptr %3, align 8
  %9 = call i32 @Abc_NtkGetChoiceNum(ptr noundef %8)
  %10 = icmp ne i32 %9, 0
  br i1 %10, label %11, label %18

11:                                               ; preds = %2
  %12 = load ptr, ptr %3, align 8
  %13 = call i32 @Abc_NtkGetChoiceNum(ptr noundef %12)
  call void (i32, ptr, ...) @Abc_Print(i32 noundef 1, ptr noundef @.str.91, i32 noundef %13)
  %14 = load ptr, ptr %3, align 8
  %15 = getelementptr inbounds %struct.Abc_Ntk_t_, ptr %14, i32 0, i32 30
  %16 = load ptr, ptr %15, align 8
  %17 = call i32 @Abc_AigCleanup(ptr noundef %16)
  br label %18

18:                                               ; preds = %11, %2
  %19 = load ptr, ptr %3, align 8
  %20 = call ptr @Abc_NtkToDar(ptr noundef %19, i32 noundef 0, i32 noundef 1)
  store ptr %20, ptr %5, align 8
  %21 = load ptr, ptr %5, align 8
  %22 = load ptr, ptr %4, align 8
  %23 = call i32 @Ssw_RarSimulate(ptr noundef %21, ptr noundef %22)
  %24 = icmp eq i32 %23, 0
  br i1 %24, label %25, label %72

25:                                               ; preds = %18
  %26 = load ptr, ptr %5, align 8
  %27 = getelementptr inbounds %struct.Aig_Man_t_, ptr %26, i32 0, i32 51
  %28 = load ptr, ptr %27, align 8
  %29 = icmp ne ptr %28, null
  br i1 %29, label %30, label %40

30:                                               ; preds = %25
  %31 = load ptr, ptr %5, align 8
  %32 = load ptr, ptr %5, align 8
  %33 = getelementptr inbounds %struct.Aig_Man_t_, ptr %32, i32 0, i32 51
  %34 = load ptr, ptr %33, align 8
  %35 = call i32 @Saig_ManVerifyCex(ptr noundef %31, ptr noundef %34)
  store i32 %35, ptr %6, align 4
  %36 = load i32, ptr %6, align 4
  %37 = icmp eq i32 %36, 0
  br i1 %37, label %38, label %39

38:                                               ; preds = %30
  call void (i32, ptr, ...) @Abc_Print(i32 noundef 1, ptr noundef @.str.93)
  br label %39

39:                                               ; preds = %38, %30
  br label %40

40:                                               ; preds = %39, %25
  %41 = load ptr, ptr %3, align 8
  %42 = getelementptr inbounds %struct.Abc_Ntk_t_, ptr %41, i32 0, i32 37
  %43 = load ptr, ptr %42, align 8
  %44 = icmp ne ptr %43, null
  br i1 %44, label %45, label %51

45:                                               ; preds = %40
  %46 = load ptr, ptr %3, align 8
  %47 = getelementptr inbounds %struct.Abc_Ntk_t_, ptr %46, i32 0, i32 37
  %48 = load ptr, ptr %47, align 8
  call void @free(ptr noundef %48) #10
  %49 = load ptr, ptr %3, align 8
  %50 = getelementptr inbounds %struct.Abc_Ntk_t_, ptr %49, i32 0, i32 37
  store ptr null, ptr %50, align 8
  br label %52

51:                                               ; preds = %40
  br label %52

52:                                               ; preds = %51, %45
  %53 = load ptr, ptr %3, align 8
  %54 = getelementptr inbounds %struct.Abc_Ntk_t_, ptr %53, i32 0, i32 38
  %55 = load ptr, ptr %54, align 8
  %56 = icmp ne ptr %55, null
  br i1 %56, label %57, label %63

57:                                               ; preds = %52
  %58 = load ptr, ptr %3, align 8
  %59 = getelementptr inbounds %struct.Abc_Ntk_t_, ptr %58, i32 0, i32 38
  %60 = load ptr, ptr %59, align 8
  call void @free(ptr noundef %60) #10
  %61 = load ptr, ptr %3, align 8
  %62 = getelementptr inbounds %struct.Abc_Ntk_t_, ptr %61, i32 0, i32 38
  store ptr null, ptr %62, align 8
  br label %64

63:                                               ; preds = %52
  br label %64

64:                                               ; preds = %63, %57
  %65 = load ptr, ptr %5, align 8
  %66 = getelementptr inbounds %struct.Aig_Man_t_, ptr %65, i32 0, i32 51
  %67 = load ptr, ptr %66, align 8
  %68 = load ptr, ptr %3, align 8
  %69 = getelementptr inbounds %struct.Abc_Ntk_t_, ptr %68, i32 0, i32 38
  store ptr %67, ptr %69, align 8
  %70 = load ptr, ptr %5, align 8
  %71 = getelementptr inbounds %struct.Aig_Man_t_, ptr %70, i32 0, i32 51
  store ptr null, ptr %71, align 8
  store i32 0, ptr %7, align 4
  br label %73

72:                                               ; preds = %18
  br label %73

73:                                               ; preds = %72, %64
  %74 = load ptr, ptr %3, align 8
  %75 = getelementptr inbounds %struct.Abc_Ntk_t_, ptr %74, i32 0, i32 39
  %76 = load ptr, ptr %75, align 8
  %77 = icmp ne ptr %76, null
  br i1 %77, label %78, label %82

78:                                               ; preds = %73
  %79 = load ptr, ptr %3, align 8
  %80 = getelementptr inbounds %struct.Abc_Ntk_t_, ptr %79, i32 0, i32 39
  %81 = load ptr, ptr %80, align 8
  call void @Vec_PtrFreeFree(ptr noundef %81)
  br label %82

82:                                               ; preds = %78, %73
  %83 = load ptr, ptr %5, align 8
  %84 = getelementptr inbounds %struct.Aig_Man_t_, ptr %83, i32 0, i32 52
  %85 = load ptr, ptr %84, align 8
  %86 = load ptr, ptr %3, align 8
  %87 = getelementptr inbounds %struct.Abc_Ntk_t_, ptr %86, i32 0, i32 39
  store ptr %85, ptr %87, align 8
  %88 = load ptr, ptr %5, align 8
  %89 = getelementptr inbounds %struct.Aig_Man_t_, ptr %88, i32 0, i32 52
  store ptr null, ptr %89, align 8
  %90 = load ptr, ptr %5, align 8
  %91 = getelementptr inbounds %struct.Aig_Man_t_, ptr %90, i32 0, i32 36
  %92 = load ptr, ptr %91, align 8
  %93 = load ptr, ptr %3, align 8
  %94 = getelementptr inbounds %struct.Abc_Ntk_t_, ptr %93, i32 0, i32 42
  store ptr %92, ptr %94, align 8
  %95 = load ptr, ptr %5, align 8
  %96 = getelementptr inbounds %struct.Aig_Man_t_, ptr %95, i32 0, i32 36
  store ptr null, ptr %96, align 8
  %97 = load ptr, ptr %5, align 8
  call void @Aig_ManStop(ptr noundef %97)
  %98 = load i32, ptr %7, align 4
  ret i32 %98
}