; Function Attrs: nounwind uwtable
define range(i32 -1, 1) i32 @Abc_NtkDarSeqSim3(ptr noundef %0, ptr noundef %1) local_unnamed_addr #1 {
  %3 = tail call i32 @Abc_NtkGetChoiceNum(ptr noundef %0) #19
  %.not = icmp eq i32 %3, 0
  br i1 %.not, label %9, label %4

4:                                                ; preds = %2
  %5 = tail call i32 @Abc_NtkGetChoiceNum(ptr noundef %0) #19
  tail call void (i32, ptr, ...) @Abc_Print(i32 poison, ptr noundef nonnull @.str.91, i32 noundef %5)
  %6 = getelementptr inbounds nuw i8, ptr %0, i64 256
  %7 = load ptr, ptr %6, align 8
  %8 = tail call i32 @Abc_AigCleanup(ptr noundef %7) #19
  br label %9

9:                                                ; preds = %4, %2
  %10 = tail call ptr @Abc_NtkToDar(ptr noundef %0, i32 noundef 0, i32 noundef 1)
  %11 = tail call i32 @Ssw_RarSimulate(ptr noundef %10, ptr noundef %1) #19
  %12 = icmp eq i32 %11, 0
  br i1 %12, label %13, label %30

13:                                               ; preds = %9
  %14 = getelementptr inbounds nuw i8, ptr %10, i64 408
  %15 = load ptr, ptr %14, align 8
  %.not32 = icmp eq ptr %15, null
  br i1 %.not32, label %20, label %16

16:                                               ; preds = %13
  %17 = tail call i32 @Saig_ManVerifyCex(ptr noundef nonnull %10, ptr noundef nonnull %15) #19
  %18 = icmp eq i32 %17, 0
  br i1 %18, label %19, label %20

19:                                               ; preds = %16
  tail call void (i32, ptr, ...) @Abc_Print(i32 poison, ptr noundef nonnull @.str.93)
  br label %20

20:                                               ; preds = %16, %19, %13
  %21 = getelementptr inbounds nuw i8, ptr %0, i64 304
  %22 = load ptr, ptr %21, align 8
  %.not33 = icmp eq ptr %22, null
  br i1 %.not33, label %24, label %23

23:                                               ; preds = %20
  tail call void @free(ptr noundef nonnull %22) #19
  store ptr null, ptr %21, align 8
  br label %24

24:                                               ; preds = %20, %23
  %25 = getelementptr inbounds nuw i8, ptr %0, i64 312
  %26 = load ptr, ptr %25, align 8
  %.not34 = icmp eq ptr %26, null
  br i1 %.not34, label %28, label %27

27:                                               ; preds = %24
  tail call void @free(ptr noundef nonnull %26) #19
  store ptr null, ptr %25, align 8
  br label %28

28:                                               ; preds = %24, %27
  %29 = load ptr, ptr %14, align 8
  store ptr %29, ptr %25, align 8
  store ptr null, ptr %14, align 8
  br label %30

30:                                               ; preds = %9, %28
  %.0 = phi i32 [ 0, %28 ], [ -1, %9 ]
  %31 = getelementptr inbounds nuw i8, ptr %0, i64 320
  %32 = load ptr, ptr %31, align 8
  %.not35 = icmp eq ptr %32, null
  br i1 %.not35, label %47, label %33

33:                                               ; preds = %30
  %34 = getelementptr i8, ptr %32, i64 4
  %.val16.i.i = load i32, ptr %34, align 4
  %35 = icmp sgt i32 %.val16.i.i, 0
  br i1 %35, label %.lr.ph.i.i, label %Vec_PtrFreeData.exit.i

.lr.ph.i.i:                                       ; preds = %33
  %36 = getelementptr i8, ptr %32, i64 8
  br label %37

37:                                               ; preds = %41, %.lr.ph.i.i
  %.val19.i.i = phi i32 [ %.val16.i.i, %.lr.ph.i.i ], [ %.val.i.i, %41 ]
  %indvars.iv.i.i = phi i64 [ 0, %.lr.ph.i.i ], [ %indvars.iv.next.i.i, %41 ]
  %.val15.i.i = load ptr, ptr %36, align 8
  %38 = getelementptr inbounds nuw ptr, ptr %.val15.i.i, i64 %indvars.iv.i.i
  %39 = load ptr, ptr %38, align 8
  %switch.i.i = icmp ult ptr %39, inttoptr (i64 3 to ptr)
  br i1 %switch.i.i, label %41, label %40

40:                                               ; preds = %37
  tail call void @free(ptr noundef %39) #19
  %.val.pre.i.i = load i32, ptr %34, align 4
  br label %41

41:                                               ; preds = %40, %37
  %.val.i.i = phi i32 [ %.val19.i.i, %37 ], [ %.val.pre.i.i, %40 ]
  %indvars.iv.next.i.i = add nuw nsw i64 %indvars.iv.i.i, 1
  %42 = sext i32 %.val.i.i to i64
  %43 = icmp slt i64 %indvars.iv.next.i.i, %42
  br i1 %43, label %37, label %Vec_PtrFreeData.exit.i, !llvm.loop !91

Vec_PtrFreeData.exit.i:                           ; preds = %41, %33
  %44 = getelementptr inbounds nuw i8, ptr %32, i64 8
  %45 = load ptr, ptr %44, align 8
  %.not.i.i = icmp eq ptr %45, null
  br i1 %.not.i.i, label %Vec_PtrFreeFree.exit, label %46

46:                                               ; preds = %Vec_PtrFreeData.exit.i
  tail call void @free(ptr noundef nonnull %45) #19
  br label %Vec_PtrFreeFree.exit

Vec_PtrFreeFree.exit:                             ; preds = %Vec_PtrFreeData.exit.i, %46
  tail call void @free(ptr noundef nonnull %32) #19
  br label %47

47:                                               ; preds = %Vec_PtrFreeFree.exit, %30
  %48 = getelementptr inbounds nuw i8, ptr %10, i64 416
  %49 = load ptr, ptr %48, align 8
  store ptr %49, ptr %31, align 8
  store ptr null, ptr %48, align 8
  %50 = getelementptr inbounds nuw i8, ptr %10, i64 296
  %51 = load ptr, ptr %50, align 8
  %52 = getelementptr inbounds nuw i8, ptr %0, i64 344
  store ptr %51, ptr %52, align 8
  store ptr null, ptr %50, align 8
  tail call void @Aig_ManStop(ptr noundef %10) #19
  ret i32 %.0
}